(lp0
(lp1
S'Name2'
p2
aI1100
aS'www'
p3
aa(lp4
S'Name3'
p5
aI1080
aa(lp6
S'Name1'
p7
aI1030
aS'wwww'
p8
aa(lp9
S'Name5'
p10
aI695
aS'ww'
p11
aa(lp12
S'Name4'
p13
aI610
aS'w'
p14
aa(lp15
S'Name6'
p16
aI590
aS'w'
p17
aa(lp18
S'Name7'
p19
aI340
aa.